(ios
_Environ
p1
(dp2
S'data'
p3
(dp4
S'VERSIONER_PYTHON_PREFER_32_BIT'
p5
S'no'
p6
sS'TERM_PROGRAM_VERSION'
p7
S'343.7'
p8
sS'LOGNAME'
p9
S'farrell'
p10
sS'USER'
p11
S'farrell'
p12
sS'HOME'
p13
S'/Users/farrell'
p14
sS'PATH'
p15
S'./src/..//submodules/sonLib/bin:./src/..//submodules/jobTree/bin:./src/..//submodules/bwa/:./src/..//submodules/last/src/:./src/..//submodules/last/scripts/:/Users/farrell/Documents/MinION_epigenomics_project/data_analysis/marginAlign/env/bin:/usr/local/bin:/usr/bin:/bin:/usr/sbin:/sbin:/Library/TeX/texbin'
p16
sS'PS1'
p17
S'(env)'
p18
sS'TERM_PROGRAM'
p19
S'Apple_Terminal'
p20
sS'LANG'
p21
S'en_US.UTF-8'
p22
sS'TERM'
p23
S'xterm-256color'
p24
sS'Apple_PubSub_Socket_Render'
p25
S'/private/tmp/com.apple.launchd.1MmzieVyUl/Render'
p26
sS'VERSIONER_PYTHON_VERSION'
p27
S'2.7'
p28
sS'SHLVL'
p29
S'3'
sS'XPC_FLAGS'
p30
S'0x0'
p31
sS'_'
S'/Users/farrell/Documents/MinION_epigenomics_project/data_analysis/marginAlign/env/bin/python'
p32
sS'TERM_SESSION_ID'
p33
S'F438063B-D91D-466F-88CE-E52EF4CB5C7B'
p34
sS'HDF5_DIR'
p35
S'/usr/local/hdf5'
p36
sS'PYTHONPATH'
p37
S'./src/..//src:./src/..//submodules'
p38
sS'XPC_SERVICE_NAME'
p39
S'0'
sS'VIRTUAL_ENV'
p40
S'/Users/farrell/Documents/MinION_epigenomics_project/data_analysis/marginAlign/env'
p41
sS'SSH_AUTH_SOCK'
p42
S'/private/tmp/com.apple.launchd.Smwwt4MzS7/Listeners'
p43
sS'SHELL'
p44
S'/bin/bash'
p45
sS'TMPDIR'
p46
S'/var/folders/ct/pyc4c6f135b0p2cj4tgj9mrxl_vshj/T/'
p47
sS'__CF_USER_TEXT_ENCODING'
p48
S'0x66ADE611:0x0:0x0'
p49
sS'PWD'
p50
S'/Users/farrell/Documents/MinION_epigenomics_project/data_analysis/marginAlign'
p51
ssb.